; Function Attrs: mustprogress uwtable
define noundef zeroext i1 @_ZN32pxrInternal_v0_24__pxrReserved__17UsdGeomXformCache18GetResetXformStackERKNS_7UsdPrimE(ptr noundef nonnull align 8 dereferenceable(64) %0, ptr noundef nonnull align 8 dereferenceable(32) %1) local_unnamed_addr #2 align 2 {
  %3 = alloca %"class.pxrInternal_v0_24__pxrReserved__::TfCallContext", align 8
  %4 = tail call noundef ptr @_ZN32pxrInternal_v0_24__pxrReserved__17UsdGeomXformCache21_GetCacheEntryForPrimERKNS_7UsdPrimE(ptr noundef nonnull align 8 dereferenceable(64) %0, ptr noundef nonnull align 8 dereferenceable(32) %1)
  %.not = icmp eq ptr %4, null
  br i1 %.not, label %5, label %.critedge

5:                                                ; preds = %2
  store ptr @.str.4, ptr %3, align 8
  %6 = getelementptr inbounds nuw i8, ptr %3, i64 8
  store ptr @__func__._ZN32pxrInternal_v0_24__pxrReserved__17UsdGeomXformCache18GetResetXformStackERKNS_7UsdPrimE, ptr %6, align 8
  %7 = getelementptr inbounds nuw i8, ptr %3, i64 16
  store i64 63, ptr %7, align 8
  %8 = getelementptr inbounds nuw i8, ptr %3, i64 24
  store ptr @__PRETTY_FUNCTION__._ZN32pxrInternal_v0_24__pxrReserved__17UsdGeomXformCache18GetResetXformStackERKNS_7UsdPrimE, ptr %8, align 8
  %9 = getelementptr inbounds nuw i8, ptr %3, i64 32
  store i8 0, ptr %9, align 8
  %10 = call noundef zeroext i1 @_ZN32pxrInternal_v0_24__pxrReserved__21Tf_FailedVerifyHelperERKNS_13TfCallContextEPKcS4_(ptr noundef nonnull align 8 dereferenceable(33) %3, ptr noundef nonnull @.str.5, ptr noundef null)
  br i1 %10, label %.critedge, label %14

.critedge:                                        ; preds = %2, %5
  %11 = getelementptr inbounds nuw i8, ptr %4, i64 24
  %12 = load i8, ptr %11, align 8
  %13 = trunc i8 %12 to i1
  br label %14

14:                                               ; preds = %5, %.critedge
  %.0 = phi i1 [ %13, %.critedge ], [ false, %5 ]
  ret i1 %.0
}